target datalayout = "e-m:e-p270:32:32-p271:32:32-p272:64:64-i64:64-i128:128-f80:128-n8:16:32:64-S128"
target triple = "x86_64-pc-linux-gnu"

%struct._object = type { %union.anon, ptr }
%union.anon = type { i64 }
%struct.PicklerObject = type { %struct._object, ptr, ptr, ptr, ptr, ptr, ptr, ptr, i64, i64, i32, i32, i32, i64, i64, i32, i32, i32, ptr, ptr }
%struct.anon = type { i32, i32 }
%struct.PyMemoTable = type { i64, i64, i64, ptr }
%struct.PyMemoEntry = type { ptr, i64 }

; Function Attrs: inlinehint nounwind uwtable
define internal void @Py_XDECREF(ptr noundef %0) #3 {
  %2 = alloca ptr, align 8
  store ptr %0, ptr %2, align 8, !tbaa !3
  %3 = load ptr, ptr %2, align 8, !tbaa !3
  %4 = icmp ne ptr %3, null
  br i1 %4, label %5, label %7

5:                                                ; preds = %1
  %6 = load ptr, ptr %2, align 8, !tbaa !3
  call void @Py_DECREF(ptr noundef %6)
  br label %7

7:                                                ; preds = %5, %1
  ret void
}

; Function Attrs: nounwind uwtable
define internal i32 @PyMemoTable_Clear(ptr noundef %0) #0 {
  %2 = alloca ptr, align 8
  %3 = alloca i64, align 8
  store ptr %0, ptr %2, align 8, !tbaa !8
  call void @llvm.lifetime.start.p0(i64 8, ptr %3) #10
  %4 = load ptr, ptr %2, align 8, !tbaa !8
  %5 = getelementptr inbounds nuw %struct.PyMemoTable, ptr %4, i32 0, i32 2
  %6 = load i64, ptr %5, align 8, !tbaa !69
  store i64 %6, ptr %3, align 8, !tbaa !34
  br label %7

7:                                                ; preds = %11, %1
  %8 = load i64, ptr %3, align 8, !tbaa !34
  %9 = add i64 %8, -1
  store i64 %9, ptr %3, align 8, !tbaa !34
  %10 = icmp sge i64 %9, 0
  br i1 %10, label %11, label %19

11:                                               ; preds = %7
  %12 = load ptr, ptr %2, align 8, !tbaa !8
  %13 = getelementptr inbounds nuw %struct.PyMemoTable, ptr %12, i32 0, i32 3
  %14 = load ptr, ptr %13, align 8, !tbaa !71
  %15 = load i64, ptr %3, align 8, !tbaa !34
  %16 = getelementptr %struct.PyMemoEntry, ptr %14, i64 %15
  %17 = getelementptr inbounds nuw %struct.PyMemoEntry, ptr %16, i32 0, i32 0
  %18 = load ptr, ptr %17, align 8, !tbaa !87
  call void @Py_XDECREF(ptr noundef %18)
  br label %7, !llvm.loop !214

19:                                               ; preds = %7
  %20 = load ptr, ptr %2, align 8, !tbaa !8
  %21 = getelementptr inbounds nuw %struct.PyMemoTable, ptr %20, i32 0, i32 1
  store i64 0, ptr %21, align 8, !tbaa !67
  %22 = load ptr, ptr %2, align 8, !tbaa !8
  %23 = getelementptr inbounds nuw %struct.PyMemoTable, ptr %22, i32 0, i32 3
  %24 = load ptr, ptr %23, align 8, !tbaa !71
  %25 = load ptr, ptr %2, align 8, !tbaa !8
  %26 = getelementptr inbounds nuw %struct.PyMemoTable, ptr %25, i32 0, i32 2
  %27 = load i64, ptr %26, align 8, !tbaa !69
  %28 = mul i64 %27, 16
  call void @llvm.memset.p0.i64(ptr align 8 %24, i8 0, i64 %28, i1 false)
  call void @llvm.lifetime.end.p0(i64 8, ptr %3) #10
  ret i32 0
}

; Function Attrs: alwaysinline nounwind uwtable
define internal i32 @_Py_IsImmortal(ptr noundef %0) #4 {
  %2 = alloca ptr, align 8
  store ptr %0, ptr %2, align 8, !tbaa !3
  %3 = load ptr, ptr %2, align 8, !tbaa !3
  %4 = getelementptr inbounds nuw %struct._object, ptr %3, i32 0, i32 0
  %5 = getelementptr inbounds nuw %struct.anon, ptr %4, i32 0, i32 0
  %6 = load i32, ptr %5, align 8, !tbaa !63
  %7 = icmp slt i32 %6, 0
  %8 = zext i1 %7 to i32
  ret i32 %8
}

; Function Attrs: nounwind uwtable
define internal void @PyMemoTable_Del(ptr noundef %0) #0 {
  %2 = alloca ptr, align 8
  store ptr %0, ptr %2, align 8, !tbaa !8
  %3 = load ptr, ptr %2, align 8, !tbaa !8
  %4 = icmp eq ptr %3, null
  br i1 %4, label %5, label %6

5:                                                ; preds = %1
  br label %13

6:                                                ; preds = %1
  %7 = load ptr, ptr %2, align 8, !tbaa !8
  %8 = call i32 @PyMemoTable_Clear(ptr noundef %7)
  %9 = load ptr, ptr %2, align 8, !tbaa !8
  %10 = getelementptr inbounds nuw %struct.PyMemoTable, ptr %9, i32 0, i32 3
  %11 = load ptr, ptr %10, align 8, !tbaa !71
  call void @PyMem_Free(ptr noundef %11)
  %12 = load ptr, ptr %2, align 8, !tbaa !8
  call void @PyMem_Free(ptr noundef %12)
  br label %13

13:                                               ; preds = %6, %5
  ret void
}

; Function Attrs: alwaysinline nounwind uwtable
define internal void @Py_DECREF(ptr noundef %0) #4 {
  %2 = alloca ptr, align 8
  store ptr %0, ptr %2, align 8, !tbaa !3
  %3 = load ptr, ptr %2, align 8, !tbaa !3
  %4 = call i32 @_Py_IsImmortal(ptr noundef %3)
  %5 = icmp ne i32 %4, 0
  br i1 %5, label %6, label %7

6:                                                ; preds = %1
  br label %16

7:                                                ; preds = %1
  %8 = load ptr, ptr %2, align 8, !tbaa !3
  %9 = getelementptr inbounds nuw %struct._object, ptr %8, i32 0, i32 0
  %10 = getelementptr inbounds nuw %struct.anon, ptr %9, i32 0, i32 0
  %11 = load i32, ptr %10, align 8, !tbaa !63
  %12 = add i32 %11, -1
  store i32 %12, ptr %10, align 8, !tbaa !63
  %13 = icmp eq i32 %12, 0
  br i1 %13, label %14, label %16

14:                                               ; preds = %7
  %15 = load ptr, ptr %2, align 8, !tbaa !3
  call void @_Py_Dealloc(ptr noundef %15)
  br label %16

16:                                               ; preds = %6, %14, %7
  ret void
}

; Function Attrs: nounwind uwtable
define internal i32 @Pickler_clear(ptr noundef %0) #0 {
  %2 = alloca ptr, align 8
  %3 = alloca ptr, align 8
  %4 = alloca ptr, align 8
  %5 = alloca ptr, align 8
  %6 = alloca ptr, align 8
  %7 = alloca ptr, align 8
  %8 = alloca ptr, align 8
  %9 = alloca ptr, align 8
  %10 = alloca ptr, align 8
  %11 = alloca ptr, align 8
  %12 = alloca ptr, align 8
  %13 = alloca ptr, align 8
  %14 = alloca ptr, align 8
  %15 = alloca ptr, align 8
  %16 = alloca ptr, align 8
  %17 = alloca ptr, align 8
  store ptr %0, ptr %2, align 8, !tbaa !38
  br label %18

18:                                               ; preds = %1
  call void @llvm.lifetime.start.p0(i64 8, ptr %3) #10
  %19 = load ptr, ptr %2, align 8, !tbaa !38
  %20 = getelementptr inbounds nuw %struct.PicklerObject, ptr %19, i32 0, i32 7
  store ptr %20, ptr %3, align 8, !tbaa !32
  call void @llvm.lifetime.start.p0(i64 8, ptr %4) #10
  %21 = load ptr, ptr %3, align 8, !tbaa !32
  %22 = load ptr, ptr %21, align 8, !tbaa !3
  store ptr %22, ptr %4, align 8, !tbaa !3
  %23 = load ptr, ptr %4, align 8, !tbaa !3
  %24 = icmp ne ptr %23, null
  br i1 %24, label %25, label %28

25:                                               ; preds = %18
  %26 = load ptr, ptr %3, align 8, !tbaa !32
  store ptr null, ptr %26, align 8, !tbaa !3
  %27 = load ptr, ptr %4, align 8, !tbaa !3
  call void @Py_DECREF(ptr noundef %27)
  br label %28

28:                                               ; preds = %25, %18
  call void @llvm.lifetime.end.p0(i64 8, ptr %4) #10
  call void @llvm.lifetime.end.p0(i64 8, ptr %3) #10
  br label %29

29:                                               ; preds = %28
  br label %30

30:                                               ; preds = %29
  call void @llvm.lifetime.start.p0(i64 8, ptr %5) #10
  %31 = load ptr, ptr %2, align 8, !tbaa !38
  %32 = getelementptr inbounds nuw %struct.PicklerObject, ptr %31, i32 0, i32 6
  store ptr %32, ptr %5, align 8, !tbaa !32
  call void @llvm.lifetime.start.p0(i64 8, ptr %6) #10
  %33 = load ptr, ptr %5, align 8, !tbaa !32
  %34 = load ptr, ptr %33, align 8, !tbaa !3
  store ptr %34, ptr %6, align 8, !tbaa !3
  %35 = load ptr, ptr %6, align 8, !tbaa !3
  %36 = icmp ne ptr %35, null
  br i1 %36, label %37, label %40

37:                                               ; preds = %30
  %38 = load ptr, ptr %5, align 8, !tbaa !32
  store ptr null, ptr %38, align 8, !tbaa !3
  %39 = load ptr, ptr %6, align 8, !tbaa !3
  call void @Py_DECREF(ptr noundef %39)
  br label %40

40:                                               ; preds = %37, %30
  call void @llvm.lifetime.end.p0(i64 8, ptr %6) #10
  call void @llvm.lifetime.end.p0(i64 8, ptr %5) #10
  br label %41

41:                                               ; preds = %40
  br label %42

42:                                               ; preds = %41
  call void @llvm.lifetime.start.p0(i64 8, ptr %7) #10
  %43 = load ptr, ptr %2, align 8, !tbaa !38
  %44 = getelementptr inbounds nuw %struct.PicklerObject, ptr %43, i32 0, i32 2
  store ptr %44, ptr %7, align 8, !tbaa !32
  call void @llvm.lifetime.start.p0(i64 8, ptr %8) #10
  %45 = load ptr, ptr %7, align 8, !tbaa !32
  %46 = load ptr, ptr %45, align 8, !tbaa !3
  store ptr %46, ptr %8, align 8, !tbaa !3
  %47 = load ptr, ptr %8, align 8, !tbaa !3
  %48 = icmp ne ptr %47, null
  br i1 %48, label %49, label %52

49:                                               ; preds = %42
  %50 = load ptr, ptr %7, align 8, !tbaa !32
  store ptr null, ptr %50, align 8, !tbaa !3
  %51 = load ptr, ptr %8, align 8, !tbaa !3
  call void @Py_DECREF(ptr noundef %51)
  br label %52

52:                                               ; preds = %49, %42
  call void @llvm.lifetime.end.p0(i64 8, ptr %8) #10
  call void @llvm.lifetime.end.p0(i64 8, ptr %7) #10
  br label %53

53:                                               ; preds = %52
  br label %54

54:                                               ; preds = %53
  call void @llvm.lifetime.start.p0(i64 8, ptr %9) #10
  %55 = load ptr, ptr %2, align 8, !tbaa !38
  %56 = getelementptr inbounds nuw %struct.PicklerObject, ptr %55, i32 0, i32 4
  store ptr %56, ptr %9, align 8, !tbaa !32
  call void @llvm.lifetime.start.p0(i64 8, ptr %10) #10
  %57 = load ptr, ptr %9, align 8, !tbaa !32
  %58 = load ptr, ptr %57, align 8, !tbaa !3
  store ptr %58, ptr %10, align 8, !tbaa !3
  %59 = load ptr, ptr %10, align 8, !tbaa !3
  %60 = icmp ne ptr %59, null
  br i1 %60, label %61, label %64

61:                                               ; preds = %54
  %62 = load ptr, ptr %9, align 8, !tbaa !32
  store ptr null, ptr %62, align 8, !tbaa !3
  %63 = load ptr, ptr %10, align 8, !tbaa !3
  call void @Py_DECREF(ptr noundef %63)
  br label %64

64:                                               ; preds = %61, %54
  call void @llvm.lifetime.end.p0(i64 8, ptr %10) #10
  call void @llvm.lifetime.end.p0(i64 8, ptr %9) #10
  br label %65

65:                                               ; preds = %64
  br label %66

66:                                               ; preds = %65
  call void @llvm.lifetime.start.p0(i64 8, ptr %11) #10
  %67 = load ptr, ptr %2, align 8, !tbaa !38
  %68 = getelementptr inbounds nuw %struct.PicklerObject, ptr %67, i32 0, i32 18
  store ptr %68, ptr %11, align 8, !tbaa !32
  call void @llvm.lifetime.start.p0(i64 8, ptr %12) #10
  %69 = load ptr, ptr %11, align 8, !tbaa !32
  %70 = load ptr, ptr %69, align 8, !tbaa !3
  store ptr %70, ptr %12, align 8, !tbaa !3
  %71 = load ptr, ptr %12, align 8, !tbaa !3
  %72 = icmp ne ptr %71, null
  br i1 %72, label %73, label %76

73:                                               ; preds = %66
  %74 = load ptr, ptr %11, align 8, !tbaa !32
  store ptr null, ptr %74, align 8, !tbaa !3
  %75 = load ptr, ptr %12, align 8, !tbaa !3
  call void @Py_DECREF(ptr noundef %75)
  br label %76

76:                                               ; preds = %73, %66
  call void @llvm.lifetime.end.p0(i64 8, ptr %12) #10
  call void @llvm.lifetime.end.p0(i64 8, ptr %11) #10
  br label %77

77:                                               ; preds = %76
  br label %78

78:                                               ; preds = %77
  call void @llvm.lifetime.start.p0(i64 8, ptr %13) #10
  %79 = load ptr, ptr %2, align 8, !tbaa !38
  %80 = getelementptr inbounds nuw %struct.PicklerObject, ptr %79, i32 0, i32 5
  store ptr %80, ptr %13, align 8, !tbaa !32
  call void @llvm.lifetime.start.p0(i64 8, ptr %14) #10
  %81 = load ptr, ptr %13, align 8, !tbaa !32
  %82 = load ptr, ptr %81, align 8, !tbaa !3
  store ptr %82, ptr %14, align 8, !tbaa !3
  %83 = load ptr, ptr %14, align 8, !tbaa !3
  %84 = icmp ne ptr %83, null
  br i1 %84, label %85, label %88

85:                                               ; preds = %78
  %86 = load ptr, ptr %13, align 8, !tbaa !32
  store ptr null, ptr %86, align 8, !tbaa !3
  %87 = load ptr, ptr %14, align 8, !tbaa !3
  call void @Py_DECREF(ptr noundef %87)
  br label %88

88:                                               ; preds = %85, %78
  call void @llvm.lifetime.end.p0(i64 8, ptr %14) #10
  call void @llvm.lifetime.end.p0(i64 8, ptr %13) #10
  br label %89

89:                                               ; preds = %88
  br label %90

90:                                               ; preds = %89
  call void @llvm.lifetime.start.p0(i64 8, ptr %15) #10
  %91 = load ptr, ptr %2, align 8, !tbaa !38
  %92 = getelementptr inbounds nuw %struct.PicklerObject, ptr %91, i32 0, i32 19
  store ptr %92, ptr %15, align 8, !tbaa !32
  call void @llvm.lifetime.start.p0(i64 8, ptr %16) #10
  %93 = load ptr, ptr %15, align 8, !tbaa !32
  %94 = load ptr, ptr %93, align 8, !tbaa !3
  store ptr %94, ptr %16, align 8, !tbaa !3
  %95 = load ptr, ptr %16, align 8, !tbaa !3
  %96 = icmp ne ptr %95, null
  br i1 %96, label %97, label %100

97:                                               ; preds = %90
  %98 = load ptr, ptr %15, align 8, !tbaa !32
  store ptr null, ptr %98, align 8, !tbaa !3
  %99 = load ptr, ptr %16, align 8, !tbaa !3
  call void @Py_DECREF(ptr noundef %99)
  br label %100

100:                                              ; preds = %97, %90
  call void @llvm.lifetime.end.p0(i64 8, ptr %16) #10
  call void @llvm.lifetime.end.p0(i64 8, ptr %15) #10
  br label %101

101:                                              ; preds = %100
  %102 = load ptr, ptr %2, align 8, !tbaa !38
  %103 = getelementptr inbounds nuw %struct.PicklerObject, ptr %102, i32 0, i32 1
  %104 = load ptr, ptr %103, align 8, !tbaa !43
  %105 = icmp ne ptr %104, null
  br i1 %105, label %106, label %113

106:                                              ; preds = %101
  call void @llvm.lifetime.start.p0(i64 8, ptr %17) #10
  %107 = load ptr, ptr %2, align 8, !tbaa !38
  %108 = getelementptr inbounds nuw %struct.PicklerObject, ptr %107, i32 0, i32 1
  %109 = load ptr, ptr %108, align 8, !tbaa !43
  store ptr %109, ptr %17, align 8, !tbaa !8
  %110 = load ptr, ptr %2, align 8, !tbaa !38
  %111 = getelementptr inbounds nuw %struct.PicklerObject, ptr %110, i32 0, i32 1
  store ptr null, ptr %111, align 8, !tbaa !43
  %112 = load ptr, ptr %17, align 8, !tbaa !8
  call void @PyMemoTable_Del(ptr noundef %112)
  call void @llvm.lifetime.end.p0(i64 8, ptr %17) #10
  br label %113

113:                                              ; preds = %106, %101
  ret i32 0
}