; Function Attrs: nounwind uwtable
define internal noundef i32 @Pickler_clear(ptr noundef captures(none) %0) #0 {
  %2 = getelementptr inbounds nuw i8, ptr %0, i64 64
  %3 = load ptr, ptr %2, align 8, !tbaa !35
  %.not = icmp eq ptr %3, null
  br i1 %.not, label %Py_DECREF.exit64, label %4

4:                                                ; preds = %1
  store ptr null, ptr %2, align 8, !tbaa !35
  %5 = load i32, ptr %3, align 8, !tbaa !42
  %.not.i63 = icmp sgt i32 %5, -1
  br i1 %.not.i63, label %6, label %Py_DECREF.exit64

6:                                                ; preds = %4
  %7 = add nsw i32 %5, -1
  store i32 %7, ptr %3, align 8, !tbaa !42
  %8 = icmp eq i32 %7, 0
  br i1 %8, label %9, label %Py_DECREF.exit64

9:                                                ; preds = %6
  tail call void @_Py_Dealloc(ptr noundef nonnull %3) #13
  br label %Py_DECREF.exit64

Py_DECREF.exit64:                                 ; preds = %9, %6, %4, %1
  %10 = getelementptr inbounds nuw i8, ptr %0, i64 56
  %11 = load ptr, ptr %10, align 8, !tbaa !35
  %.not46 = icmp eq ptr %11, null
  br i1 %.not46, label %Py_DECREF.exit62, label %12

12:                                               ; preds = %Py_DECREF.exit64
  store ptr null, ptr %10, align 8, !tbaa !35
  %13 = load i32, ptr %11, align 8, !tbaa !42
  %.not.i61 = icmp sgt i32 %13, -1
  br i1 %.not.i61, label %14, label %Py_DECREF.exit62

14:                                               ; preds = %12
  %15 = add nsw i32 %13, -1
  store i32 %15, ptr %11, align 8, !tbaa !42
  %16 = icmp eq i32 %15, 0
  br i1 %16, label %17, label %Py_DECREF.exit62

17:                                               ; preds = %14
  tail call void @_Py_Dealloc(ptr noundef nonnull %11) #13
  br label %Py_DECREF.exit62

Py_DECREF.exit62:                                 ; preds = %17, %14, %12, %Py_DECREF.exit64
  %18 = getelementptr inbounds nuw i8, ptr %0, i64 24
  %19 = load ptr, ptr %18, align 8, !tbaa !35
  %.not47 = icmp eq ptr %19, null
  br i1 %.not47, label %Py_DECREF.exit60, label %20

20:                                               ; preds = %Py_DECREF.exit62
  store ptr null, ptr %18, align 8, !tbaa !35
  %21 = load i32, ptr %19, align 8, !tbaa !42
  %.not.i59 = icmp sgt i32 %21, -1
  br i1 %.not.i59, label %22, label %Py_DECREF.exit60

22:                                               ; preds = %20
  %23 = add nsw i32 %21, -1
  store i32 %23, ptr %19, align 8, !tbaa !42
  %24 = icmp eq i32 %23, 0
  br i1 %24, label %25, label %Py_DECREF.exit60

25:                                               ; preds = %22
  tail call void @_Py_Dealloc(ptr noundef nonnull %19) #13
  br label %Py_DECREF.exit60

Py_DECREF.exit60:                                 ; preds = %25, %22, %20, %Py_DECREF.exit62
  %26 = getelementptr inbounds nuw i8, ptr %0, i64 40
  %27 = load ptr, ptr %26, align 8, !tbaa !35
  %.not48 = icmp eq ptr %27, null
  br i1 %.not48, label %Py_DECREF.exit58, label %28

28:                                               ; preds = %Py_DECREF.exit60
  store ptr null, ptr %26, align 8, !tbaa !35
  %29 = load i32, ptr %27, align 8, !tbaa !42
  %.not.i57 = icmp sgt i32 %29, -1
  br i1 %.not.i57, label %30, label %Py_DECREF.exit58

30:                                               ; preds = %28
  %31 = add nsw i32 %29, -1
  store i32 %31, ptr %27, align 8, !tbaa !42
  %32 = icmp eq i32 %31, 0
  br i1 %32, label %33, label %Py_DECREF.exit58

33:                                               ; preds = %30
  tail call void @_Py_Dealloc(ptr noundef nonnull %27) #13
  br label %Py_DECREF.exit58

Py_DECREF.exit58:                                 ; preds = %33, %30, %28, %Py_DECREF.exit60
  %34 = getelementptr inbounds nuw i8, ptr %0, i64 136
  %35 = load ptr, ptr %34, align 8, !tbaa !35
  %.not49 = icmp eq ptr %35, null
  br i1 %.not49, label %Py_DECREF.exit56, label %36

36:                                               ; preds = %Py_DECREF.exit58
  store ptr null, ptr %34, align 8, !tbaa !35
  %37 = load i32, ptr %35, align 8, !tbaa !42
  %.not.i55 = icmp sgt i32 %37, -1
  br i1 %.not.i55, label %38, label %Py_DECREF.exit56

38:                                               ; preds = %36
  %39 = add nsw i32 %37, -1
  store i32 %39, ptr %35, align 8, !tbaa !42
  %40 = icmp eq i32 %39, 0
  br i1 %40, label %41, label %Py_DECREF.exit56

41:                                               ; preds = %38
  tail call void @_Py_Dealloc(ptr noundef nonnull %35) #13
  br label %Py_DECREF.exit56

Py_DECREF.exit56:                                 ; preds = %41, %38, %36, %Py_DECREF.exit58
  %42 = getelementptr inbounds nuw i8, ptr %0, i64 48
  %43 = load ptr, ptr %42, align 8, !tbaa !35
  %.not50 = icmp eq ptr %43, null
  br i1 %.not50, label %Py_DECREF.exit54, label %44

44:                                               ; preds = %Py_DECREF.exit56
  store ptr null, ptr %42, align 8, !tbaa !35
  %45 = load i32, ptr %43, align 8, !tbaa !42
  %.not.i53 = icmp sgt i32 %45, -1
  br i1 %.not.i53, label %46, label %Py_DECREF.exit54

46:                                               ; preds = %44
  %47 = add nsw i32 %45, -1
  store i32 %47, ptr %43, align 8, !tbaa !42
  %48 = icmp eq i32 %47, 0
  br i1 %48, label %49, label %Py_DECREF.exit54

49:                                               ; preds = %46
  tail call void @_Py_Dealloc(ptr noundef nonnull %43) #13
  br label %Py_DECREF.exit54

Py_DECREF.exit54:                                 ; preds = %49, %46, %44, %Py_DECREF.exit56
  %50 = getelementptr inbounds nuw i8, ptr %0, i64 144
  %51 = load ptr, ptr %50, align 8, !tbaa !35
  %.not51 = icmp eq ptr %51, null
  br i1 %.not51, label %Py_DECREF.exit, label %52

52:                                               ; preds = %Py_DECREF.exit54
  store ptr null, ptr %50, align 8, !tbaa !35
  %53 = load i32, ptr %51, align 8, !tbaa !42
  %.not.i = icmp sgt i32 %53, -1
  br i1 %.not.i, label %54, label %Py_DECREF.exit

54:                                               ; preds = %52
  %55 = add nsw i32 %53, -1
  store i32 %55, ptr %51, align 8, !tbaa !42
  %56 = icmp eq i32 %55, 0
  br i1 %56, label %57, label %Py_DECREF.exit

57:                                               ; preds = %54
  tail call void @_Py_Dealloc(ptr noundef nonnull %51) #13
  br label %Py_DECREF.exit

Py_DECREF.exit:                                   ; preds = %57, %54, %52, %Py_DECREF.exit54
  %58 = getelementptr inbounds nuw i8, ptr %0, i64 16
  %59 = load ptr, ptr %58, align 8, !tbaa !78
  %.not52 = icmp eq ptr %59, null
  br i1 %.not52, label %85, label %60

60:                                               ; preds = %Py_DECREF.exit
  store ptr null, ptr %58, align 8, !tbaa !78
  %61 = getelementptr inbounds nuw i8, ptr %59, i64 16
  %62 = load i64, ptr %61, align 8, !tbaa !75
  %63 = add i64 %62, -1
  %64 = icmp sgt i64 %63, -1
  br i1 %64, label %.lr.ph.i.i, label %PyMemoTable_Del.exit

.lr.ph.i.i:                                       ; preds = %60
  %65 = getelementptr inbounds nuw i8, ptr %59, i64 24
  br label %66

66:                                               ; preds = %Py_XDECREF.exit.i.i, %.lr.ph.i.i
  %67 = phi i64 [ %63, %.lr.ph.i.i ], [ %77, %Py_XDECREF.exit.i.i ]
  %68 = load ptr, ptr %65, align 8, !tbaa !77
  %69 = getelementptr %struct.PyMemoEntry, ptr %68, i64 %67
  %70 = load ptr, ptr %69, align 8, !tbaa !96
  %.not.i.i.i = icmp eq ptr %70, null
  br i1 %.not.i.i.i, label %Py_XDECREF.exit.i.i, label %71

71:                                               ; preds = %66
  %72 = load i32, ptr %70, align 8, !tbaa !42
  %.not.i.i.i.i = icmp sgt i32 %72, -1
  br i1 %.not.i.i.i.i, label %73, label %Py_XDECREF.exit.i.i

73:                                               ; preds = %71
  %74 = add nsw i32 %72, -1
  store i32 %74, ptr %70, align 8, !tbaa !42
  %75 = icmp eq i32 %74, 0
  br i1 %75, label %76, label %Py_XDECREF.exit.i.i

76:                                               ; preds = %73
  tail call void @_Py_Dealloc(ptr noundef nonnull %70) #13
  br label %Py_XDECREF.exit.i.i

Py_XDECREF.exit.i.i:                              ; preds = %76, %73, %71, %66
  %77 = add nsw i64 %67, -1
  %78 = icmp sgt i64 %67, 0
  br i1 %78, label %66, label %._crit_edge.loopexit.i.i, !llvm.loop !194

._crit_edge.loopexit.i.i:                         ; preds = %Py_XDECREF.exit.i.i
  %.pre.i.i = load i64, ptr %61, align 8, !tbaa !75
  br label %PyMemoTable_Del.exit

PyMemoTable_Del.exit:                             ; preds = %60, %._crit_edge.loopexit.i.i
  %79 = phi i64 [ %.pre.i.i, %._crit_edge.loopexit.i.i ], [ %62, %60 ]
  %80 = getelementptr inbounds nuw i8, ptr %59, i64 8
  store i64 0, ptr %80, align 8, !tbaa !73
  %81 = getelementptr inbounds nuw i8, ptr %59, i64 24
  %82 = load ptr, ptr %81, align 8, !tbaa !77
  %83 = shl i64 %79, 4
  tail call void @llvm.memset.p0.i64(ptr align 8 %82, i8 0, i64 %83, i1 false)
  %84 = load ptr, ptr %81, align 8, !tbaa !77
  tail call void @PyMem_Free(ptr noundef %84) #13
  tail call void @PyMem_Free(ptr noundef nonnull %59) #13
  br label %85

85:                                               ; preds = %PyMemoTable_Del.exit, %Py_DECREF.exit
  ret i32 0
}